; Function Attrs: nofree norecurse nosync nounwind memory(readwrite, inaccessiblemem: none) uwtable
define internal noundef i32 @iir_ch_lattice_s32p(ptr noundef readonly captures(none) %0, ptr noundef readonly captures(none) %1, i32 noundef %2, i32 %3) #8 {
  %5 = getelementptr inbounds nuw i8, ptr %0, i64 72
  %6 = load ptr, ptr %5, align 8, !tbaa !4
  %7 = getelementptr inbounds nuw i8, ptr %6, i64 32
  %8 = load double, ptr %7, align 8, !tbaa !151
  %9 = getelementptr inbounds nuw i8, ptr %6, i64 48
  %10 = load double, ptr %9, align 8, !tbaa !152
  %11 = load ptr, ptr %1, align 8, !tbaa !59
  %12 = getelementptr inbounds nuw i8, ptr %1, i64 8
  %13 = load ptr, ptr %12, align 8, !tbaa !61
  %14 = getelementptr inbounds nuw i8, ptr %11, i64 96
  %15 = load ptr, ptr %14, align 8, !tbaa !153
  %16 = sext i32 %2 to i64
  %17 = getelementptr inbounds ptr, ptr %15, i64 %16
  %18 = load ptr, ptr %17, align 8, !tbaa !30
  %19 = getelementptr inbounds nuw i8, ptr %6, i64 104
  %20 = load ptr, ptr %19, align 8, !tbaa !34
  %21 = getelementptr inbounds %struct.IIRChannel, ptr %20, i64 %16
  %22 = getelementptr inbounds nuw i8, ptr %21, i64 32
  %23 = load ptr, ptr %22, align 8, !tbaa !74
  %24 = getelementptr inbounds nuw i8, ptr %21, i64 4
  %25 = load i32, ptr %24, align 4, !tbaa !31
  %26 = getelementptr inbounds nuw i8, ptr %21, i64 8
  %27 = load ptr, ptr %26, align 8, !tbaa !74
  %28 = getelementptr inbounds nuw i8, ptr %21, i64 16
  %29 = load ptr, ptr %28, align 8, !tbaa !74
  %30 = getelementptr inbounds nuw i8, ptr %21, i64 64
  %31 = getelementptr inbounds nuw i8, ptr %13, i64 96
  %32 = load ptr, ptr %31, align 8, !tbaa !153
  %33 = getelementptr inbounds ptr, ptr %32, i64 %16
  %34 = load ptr, ptr %33, align 8, !tbaa !30
  %35 = getelementptr inbounds nuw i8, ptr %11, i64 112
  %36 = load i32, ptr %35, align 8, !tbaa !53
  %37 = icmp sgt i32 %36, 0
  br i1 %37, label %.lr.ph86, label %._crit_edge87

.lr.ph86:                                         ; preds = %4
  %38 = getelementptr inbounds nuw i8, ptr %21, i64 24
  %39 = load double, ptr %38, align 8, !tbaa !100
  %40 = getelementptr inbounds nuw i8, ptr %6, i64 40
  %41 = load double, ptr %40, align 8, !tbaa !154
  %42 = icmp sgt i32 %25, 0
  %43 = getelementptr inbounds nuw i8, ptr %23, i64 8
  %44 = sext i32 %25 to i64
  %45 = shl nsw i64 %44, 3
  %46 = fmul nsz double %41, %39
  %47 = fsub nsz double 1.000000e+00, %10
  br i1 %42, label %.lr.ph.us.preheader, label %.lr.ph86.split

.lr.ph.us.preheader:                              ; preds = %.lr.ph86
  %48 = zext nneg i32 %25 to i64
  br label %.lr.ph.us

.lr.ph.us:                                        ; preds = %.lr.ph.us.preheader, %63
  %indvars.iv94 = phi i64 [ 0, %.lr.ph.us.preheader ], [ %indvars.iv.next95, %63 ]
  %49 = getelementptr inbounds nuw i32, ptr %18, i64 %indvars.iv94
  %50 = load i32, ptr %49, align 4, !tbaa !31
  %51 = sitofp i32 %50 to double
  %52 = fmul nsz double %8, %51
  br label %68

53:                                               ; preds = %._crit_edge.us
  %54 = fcmp nsz ogt double %84, 0x41DFFFFFFFC00000
  br i1 %54, label %57, label %55

55:                                               ; preds = %53
  %56 = fptosi double %84 to i32
  br label %63

57:                                               ; preds = %53
  %58 = load i32, ptr %30, align 4, !tbaa !31
  %59 = add nsw i32 %58, 1
  store i32 %59, ptr %30, align 4, !tbaa !31
  br label %63

60:                                               ; preds = %._crit_edge.us
  %61 = load i32, ptr %30, align 4, !tbaa !31
  %62 = add nsw i32 %61, 1
  store i32 %62, ptr %30, align 4, !tbaa !31
  br label %63

63:                                               ; preds = %60, %57, %55
  %.sink = phi i32 [ -2147483648, %60 ], [ 2147483647, %57 ], [ %56, %55 ]
  %64 = getelementptr inbounds nuw i32, ptr %34, i64 %indvars.iv94
  store i32 %.sink, ptr %64, align 4, !tbaa !31
  %indvars.iv.next95 = add nuw nsw i64 %indvars.iv94, 1
  %65 = load i32, ptr %35, align 8, !tbaa !53
  %66 = sext i32 %65 to i64
  %67 = icmp slt i64 %indvars.iv.next95, %66
  br i1 %67, label %.lr.ph.us, label %._crit_edge87, !llvm.loop !203

68:                                               ; preds = %.lr.ph.us, %68
  %indvars.iv91 = phi i64 [ %48, %.lr.ph.us ], [ %indvars.iv.next92, %68 ]
  %.07681.us = phi double [ 0.000000e+00, %.lr.ph.us ], [ %78, %68 ]
  %.07780.us = phi double [ %52, %.lr.ph.us ], [ %74, %68 ]
  %indvars.iv.next92 = add nsw i64 %indvars.iv91, -1
  %69 = getelementptr inbounds nuw double, ptr %29, i64 %indvars.iv.next92
  %70 = load double, ptr %69, align 8, !tbaa !75
  %71 = getelementptr inbounds nuw double, ptr %23, i64 %indvars.iv.next92
  %72 = load double, ptr %71, align 8, !tbaa !75
  %73 = fneg nsz double %70
  %74 = tail call nsz double @llvm.fmuladd.f64(double %73, double %72, double %.07780.us)
  %75 = tail call nsz double @llvm.fmuladd.f64(double %74, double %70, double %72)
  %76 = getelementptr inbounds nuw double, ptr %27, i64 %indvars.iv91
  %77 = load double, ptr %76, align 8, !tbaa !75
  %78 = tail call nsz double @llvm.fmuladd.f64(double %75, double %77, double %.07681.us)
  store double %75, ptr %71, align 8, !tbaa !75
  %79 = icmp sgt i64 %indvars.iv91, 1
  br i1 %79, label %68, label %._crit_edge.us, !llvm.loop !204

._crit_edge.us:                                   ; preds = %68
  %80 = load double, ptr %27, align 8, !tbaa !75
  %81 = tail call nsz double @llvm.fmuladd.f64(double %74, double %80, double %78)
  tail call void @llvm.memmove.p0.p0.i64(ptr nonnull align 8 %43, ptr nonnull align 8 %23, i64 %45, i1 false)
  store double %74, ptr %23, align 8, !tbaa !75
  %82 = fmul nsz double %46, %81
  %83 = fmul nsz double %47, %52
  %84 = tail call nsz double @llvm.fmuladd.f64(double %82, double %10, double %83)
  %85 = fcmp nsz olt double %84, 0xC1E0000000000000
  br i1 %85, label %60, label %53

.lr.ph86.split:                                   ; preds = %.lr.ph86, %106
  %indvars.iv = phi i64 [ %indvars.iv.next, %106 ], [ 0, %.lr.ph86 ]
  %86 = getelementptr inbounds nuw i32, ptr %18, i64 %indvars.iv
  %87 = load i32, ptr %86, align 4, !tbaa !31
  %88 = sitofp i32 %87 to double
  %89 = fmul nsz double %8, %88
  %90 = load double, ptr %27, align 8, !tbaa !75
  %91 = fmul nsz double %89, %90
  tail call void @llvm.memmove.p0.p0.i64(ptr nonnull align 8 %43, ptr align 8 %23, i64 %45, i1 false)
  store double %89, ptr %23, align 8, !tbaa !75
  %92 = fmul nsz double %46, %91
  %93 = fmul nsz double %47, %89
  %94 = tail call nsz double @llvm.fmuladd.f64(double %92, double %10, double %93)
  %95 = fcmp nsz olt double %94, 0xC1E0000000000000
  br i1 %95, label %96, label %99

96:                                               ; preds = %.lr.ph86.split
  %97 = load i32, ptr %30, align 4, !tbaa !31
  %98 = add nsw i32 %97, 1
  store i32 %98, ptr %30, align 4, !tbaa !31
  br label %106

99:                                               ; preds = %.lr.ph86.split
  %100 = fcmp nsz ogt double %94, 0x41DFFFFFFFC00000
  br i1 %100, label %101, label %104

101:                                              ; preds = %99
  %102 = load i32, ptr %30, align 4, !tbaa !31
  %103 = add nsw i32 %102, 1
  store i32 %103, ptr %30, align 4, !tbaa !31
  br label %106

104:                                              ; preds = %99
  %105 = fptosi double %94 to i32
  br label %106

106:                                              ; preds = %101, %104, %96
  %.sink100 = phi i32 [ 2147483647, %101 ], [ %105, %104 ], [ -2147483648, %96 ]
  %107 = getelementptr inbounds nuw i32, ptr %34, i64 %indvars.iv
  store i32 %.sink100, ptr %107, align 4, !tbaa !31
  %indvars.iv.next = add nuw nsw i64 %indvars.iv, 1
  %108 = load i32, ptr %35, align 8, !tbaa !53
  %109 = sext i32 %108 to i64
  %110 = icmp slt i64 %indvars.iv.next, %109
  br i1 %110, label %.lr.ph86.split, label %._crit_edge87, !llvm.loop !203

._crit_edge87:                                    ; preds = %106, %63, %4
  ret i32 0
}